target datalayout = "e-m:e-p270:32:32-p271:32:32-p272:64:64-i64:64-i128:128-f80:128-n8:16:32:64-S128"
target triple = "x86_64-unknown-linux-gnu"

%"class.pugi::xml_node" = type { ptr }
%"class.pugi::xml_attribute" = type { ptr }
%"struct.pugi::xml_node_struct" = type { i64, ptr, ptr, ptr, ptr, ptr, ptr, ptr }
%"class.pugi::xml_object_range.99" = type { %"class.pugi::xml_attribute_iterator", %"class.pugi::xml_attribute_iterator" }
%"class.pugi::xml_attribute_iterator" = type { %"class.pugi::xml_attribute", %"class.pugi::xml_node" }
%"struct.pugi::xml_attribute_struct" = type { i64, ptr, ptr, ptr, ptr }

@.str.76 = private unnamed_addr constant [3 x i8] c"id\00", align 1
@.str.86 = private unnamed_addr constant [1 x i8] zeroinitializer, align 1

; Function Attrs: mustprogress nounwind uwtable
define linkonce_odr hidden void @_ZN4pugi8xml_nodeC2EPNS_15xml_node_structE(ptr noundef nonnull align 8 dereferenceable(8) %this, ptr noundef %p) unnamed_addr #0 comdat align 2 {
entry:
  %this.addr = alloca ptr, align 8
  %p.addr = alloca ptr, align 8
  store ptr %this, ptr %this.addr, align 8
  store ptr %p, ptr %p.addr, align 8
  %this1 = load ptr, ptr %this.addr, align 8
  %_root = getelementptr inbounds %"class.pugi::xml_node", ptr %this1, i32 0, i32 0
  %0 = load ptr, ptr %p.addr, align 8
  store ptr %0, ptr %_root, align 8
  ret void
}

; Function Attrs: mustprogress nounwind uwtable
define linkonce_odr hidden void @_ZN4pugi13xml_attributeC2EPNS_20xml_attribute_structE(ptr noundef nonnull align 8 dereferenceable(8) %this, ptr noundef %attr) unnamed_addr #0 comdat align 2 {
entry:
  %this.addr = alloca ptr, align 8
  %attr.addr = alloca ptr, align 8
  store ptr %this, ptr %this.addr, align 8
  store ptr %attr, ptr %attr.addr, align 8
  %this1 = load ptr, ptr %this.addr, align 8
  %_attr = getelementptr inbounds %"class.pugi::xml_attribute", ptr %this1, i32 0, i32 0
  %0 = load ptr, ptr %attr.addr, align 8
  store ptr %0, ptr %_attr, align 8
  ret void
}

; Function Attrs: mustprogress uwtable
define linkonce_odr hidden void @_ZN4pugi22xml_attribute_iteratorC2EPNS_20xml_attribute_structEPNS_15xml_node_structE(ptr noundef nonnull align 8 dereferenceable(16) %this, ptr noundef %ref, ptr noundef %parent) unnamed_addr #2 comdat align 2 {
entry:
  %this.addr = alloca ptr, align 8
  %ref.addr = alloca ptr, align 8
  %parent.addr = alloca ptr, align 8
  store ptr %this, ptr %this.addr, align 8
  store ptr %ref, ptr %ref.addr, align 8
  store ptr %parent, ptr %parent.addr, align 8
  %this1 = load ptr, ptr %this.addr, align 8
  %_wrap = getelementptr inbounds %"class.pugi::xml_attribute_iterator", ptr %this1, i32 0, i32 0
  %0 = load ptr, ptr %ref.addr, align 8
  call void @_ZN4pugi13xml_attributeC2EPNS_20xml_attribute_structE(ptr noundef nonnull align 8 dereferenceable(8) %_wrap, ptr noundef %0)
  %_parent = getelementptr inbounds %"class.pugi::xml_attribute_iterator", ptr %this1, i32 0, i32 1
  %1 = load ptr, ptr %parent.addr, align 8
  call void @_ZN4pugi8xml_nodeC2EPNS_15xml_node_structE(ptr noundef nonnull align 8 dereferenceable(8) %_parent, ptr noundef %1)
  ret void
}

; Function Attrs: mustprogress uwtable
define linkonce_odr hidden noundef i32 @_ZN4pugi4impl13get_value_intEPKc(ptr noundef %value) #2 comdat {
entry:
  %value.addr = alloca ptr, align 8
  store ptr %value, ptr %value.addr, align 8
  %0 = load ptr, ptr %value.addr, align 8
  %call = call noundef i32 @_ZN4pugi4impl17string_to_integerIjEET_PKcS2_S2_(ptr noundef %0, i32 noundef -2147483648, i32 noundef 2147483647)
  ret i32 %call
}

; Function Attrs: mustprogress nounwind uwtable
define linkonce_odr hidden void @_ZN4pugi16xml_object_rangeINS_22xml_attribute_iteratorEEC2ES1_S1_(ptr noundef nonnull align 8 dereferenceable(32) %this, ptr %b.coerce0, ptr %b.coerce1, ptr %e.coerce0, ptr %e.coerce1) unnamed_addr #0 comdat align 2 {
entry:
  %b = alloca %"class.pugi::xml_attribute_iterator", align 8
  %e = alloca %"class.pugi::xml_attribute_iterator", align 8
  %this.addr = alloca ptr, align 8
  %0 = getelementptr inbounds { ptr, ptr }, ptr %b, i32 0, i32 0
  store ptr %b.coerce0, ptr %0, align 8
  %1 = getelementptr inbounds { ptr, ptr }, ptr %b, i32 0, i32 1
  store ptr %b.coerce1, ptr %1, align 8
  %2 = getelementptr inbounds { ptr, ptr }, ptr %e, i32 0, i32 0
  store ptr %e.coerce0, ptr %2, align 8
  %3 = getelementptr inbounds { ptr, ptr }, ptr %e, i32 0, i32 1
  store ptr %e.coerce1, ptr %3, align 8
  store ptr %this, ptr %this.addr, align 8
  %this1 = load ptr, ptr %this.addr, align 8
  %_begin = getelementptr inbounds %"class.pugi::xml_object_range.99", ptr %this1, i32 0, i32 0
  call void @llvm.memcpy.p0.p0.i64(ptr align 8 %_begin, ptr align 8 %b, i64 16, i1 false)
  %_end = getelementptr inbounds %"class.pugi::xml_object_range.99", ptr %this1, i32 0, i32 1
  call void @llvm.memcpy.p0.p0.i64(ptr align 8 %_end, ptr align 8 %e, i64 16, i1 false)
  ret void
}

; Function Attrs: mustprogress uwtable
define linkonce_odr hidden { ptr, ptr } @_ZNK4pugi8xml_node14attributes_endEv(ptr noundef nonnull align 8 dereferenceable(8) %this) #2 comdat align 2 {
entry:
  %retval = alloca %"class.pugi::xml_attribute_iterator", align 8
  %this.addr = alloca ptr, align 8
  store ptr %this, ptr %this.addr, align 8
  %this1 = load ptr, ptr %this.addr, align 8
  %_root = getelementptr inbounds %"class.pugi::xml_node", ptr %this1, i32 0, i32 0
  %0 = load ptr, ptr %_root, align 8
  call void @_ZN4pugi22xml_attribute_iteratorC2EPNS_20xml_attribute_structEPNS_15xml_node_structE(ptr noundef nonnull align 8 dereferenceable(16) %retval, ptr noundef null, ptr noundef %0)
  %1 = load { ptr, ptr }, ptr %retval, align 8
  ret { ptr, ptr } %1
}

; Function Attrs: mustprogress uwtable
define linkonce_odr hidden { ptr, ptr } @_ZNK4pugi8xml_node16attributes_beginEv(ptr noundef nonnull align 8 dereferenceable(8) %this) #2 comdat align 2 {
entry:
  %retval = alloca %"class.pugi::xml_attribute_iterator", align 8
  %this.addr = alloca ptr, align 8
  store ptr %this, ptr %this.addr, align 8
  %this1 = load ptr, ptr %this.addr, align 8
  %_root = getelementptr inbounds %"class.pugi::xml_node", ptr %this1, i32 0, i32 0
  %0 = load ptr, ptr %_root, align 8
  %tobool = icmp ne ptr %0, null
  br i1 %tobool, label %cond.true, label %cond.false

cond.true:                                        ; preds = %entry
  %_root2 = getelementptr inbounds %"class.pugi::xml_node", ptr %this1, i32 0, i32 0
  %1 = load ptr, ptr %_root2, align 8
  %first_attribute = getelementptr inbounds %"struct.pugi::xml_node_struct", ptr %1, i32 0, i32 7
  %2 = load ptr, ptr %first_attribute, align 8
  %add.ptr = getelementptr inbounds %"struct.pugi::xml_attribute_struct", ptr %2, i64 0
  br label %cond.end

cond.false:                                       ; preds = %entry
  br label %cond.end

cond.end:                                         ; preds = %cond.false, %cond.true
  %cond = phi ptr [ %add.ptr, %cond.true ], [ null, %cond.false ]
  %_root3 = getelementptr inbounds %"class.pugi::xml_node", ptr %this1, i32 0, i32 0
  %3 = load ptr, ptr %_root3, align 8
  call void @_ZN4pugi22xml_attribute_iteratorC2EPNS_20xml_attribute_structEPNS_15xml_node_structE(ptr noundef nonnull align 8 dereferenceable(16) %retval, ptr noundef %cond, ptr noundef %3)
  %4 = load { ptr, ptr }, ptr %retval, align 8
  ret { ptr, ptr } %4
}

; Function Attrs: mustprogress nounwind uwtable
define linkonce_odr hidden noundef nonnull align 8 dereferenceable(16) ptr @_ZN4pugi22xml_attribute_iteratorppEv(ptr noundef nonnull align 8 dereferenceable(16) %this) #0 comdat align 2 {
entry:
  %this.addr = alloca ptr, align 8
  store ptr %this, ptr %this.addr, align 8
  %this1 = load ptr, ptr %this.addr, align 8
  %_wrap = getelementptr inbounds %"class.pugi::xml_attribute_iterator", ptr %this1, i32 0, i32 0
  %_attr = getelementptr inbounds %"class.pugi::xml_attribute", ptr %_wrap, i32 0, i32 0
  %0 = load ptr, ptr %_attr, align 8
  %next_attribute = getelementptr inbounds %"struct.pugi::xml_attribute_struct", ptr %0, i32 0, i32 4
  %1 = load ptr, ptr %next_attribute, align 8
  %_wrap2 = getelementptr inbounds %"class.pugi::xml_attribute_iterator", ptr %this1, i32 0, i32 0
  %_attr3 = getelementptr inbounds %"class.pugi::xml_attribute", ptr %_wrap2, i32 0, i32 0
  store ptr %1, ptr %_attr3, align 8
  ret ptr %this1
}

; Function Attrs: mustprogress uwtable
define linkonce_odr hidden noundef i32 @_ZNK4pugi13xml_attribute6as_intEi(ptr noundef nonnull align 8 dereferenceable(8) %this, i32 noundef %def) #2 comdat align 2 {
entry:
  %retval = alloca i32, align 4
  %this.addr = alloca ptr, align 8
  %def.addr = alloca i32, align 4
  %value = alloca ptr, align 8
  store ptr %this, ptr %this.addr, align 8
  store i32 %def, ptr %def.addr, align 4
  %this1 = load ptr, ptr %this.addr, align 8
  %_attr = getelementptr inbounds %"class.pugi::xml_attribute", ptr %this1, i32 0, i32 0
  %0 = load ptr, ptr %_attr, align 8
  %tobool = icmp ne ptr %0, null
  br i1 %tobool, label %if.end, label %if.then

if.then:                                          ; preds = %entry
  %1 = load i32, ptr %def.addr, align 4
  store i32 %1, ptr %retval, align 4
  br label %return

if.end:                                           ; preds = %entry
  %_attr2 = getelementptr inbounds %"class.pugi::xml_attribute", ptr %this1, i32 0, i32 0
  %2 = load ptr, ptr %_attr2, align 8
  %value3 = getelementptr inbounds %"struct.pugi::xml_attribute_struct", ptr %2, i32 0, i32 2
  %3 = load ptr, ptr %value3, align 8
  store ptr %3, ptr %value, align 8
  %4 = load ptr, ptr %value, align 8
  %tobool4 = icmp ne ptr %4, null
  br i1 %tobool4, label %cond.true, label %cond.false

cond.true:                                        ; preds = %if.end
  %5 = load ptr, ptr %value, align 8
  %call = call noundef i32 @_ZN4pugi4impl13get_value_intEPKc(ptr noundef %5)
  br label %cond.end

cond.false:                                       ; preds = %if.end
  %6 = load i32, ptr %def.addr, align 4
  br label %cond.end

cond.end:                                         ; preds = %cond.false, %cond.true
  %cond = phi i32 [ %call, %cond.true ], [ %6, %cond.false ]
  store i32 %cond, ptr %retval, align 4
  br label %return

return:                                           ; preds = %cond.end, %if.then
  %7 = load i32, ptr %retval, align 4
  ret i32 %7
}

; Function Attrs: mustprogress nounwind uwtable
define linkonce_odr hidden noundef i32 @_ZN6Assimp14ASSIMP_stricmpEPKcS1_(ptr noundef %s1, ptr noundef %s2) #0 comdat {
entry:
  %s1.addr = alloca ptr, align 8
  %s2.addr = alloca ptr, align 8
  %c1 = alloca i8, align 1
  %c2 = alloca i8, align 1
  store ptr %s1, ptr %s1.addr, align 8
  store ptr %s2, ptr %s2.addr, align 8
  br label %do.body

do.body:                                          ; preds = %land.end, %entry
  %0 = load ptr, ptr %s1.addr, align 8
  %incdec.ptr = getelementptr inbounds i8, ptr %0, i32 1
  store ptr %incdec.ptr, ptr %s1.addr, align 8
  %1 = load i8, ptr %0, align 1
  %conv = zext i8 %1 to i32
  %call = call i32 @tolower(i32 noundef %conv) #21
  %conv1 = trunc i32 %call to i8
  store i8 %conv1, ptr %c1, align 1
  %2 = load ptr, ptr %s2.addr, align 8
  %incdec.ptr2 = getelementptr inbounds i8, ptr %2, i32 1
  store ptr %incdec.ptr2, ptr %s2.addr, align 8
  %3 = load i8, ptr %2, align 1
  %conv3 = zext i8 %3 to i32
  %call4 = call i32 @tolower(i32 noundef %conv3) #21
  %conv5 = trunc i32 %call4 to i8
  store i8 %conv5, ptr %c2, align 1
  br label %do.cond

do.cond:                                          ; preds = %do.body
  %4 = load i8, ptr %c1, align 1
  %tobool = icmp ne i8 %4, 0
  br i1 %tobool, label %land.rhs, label %land.end

land.rhs:                                         ; preds = %do.cond
  %5 = load i8, ptr %c1, align 1
  %conv6 = sext i8 %5 to i32
  %6 = load i8, ptr %c2, align 1
  %conv7 = sext i8 %6 to i32
  %cmp = icmp eq i32 %conv6, %conv7
  br label %land.end

land.end:                                         ; preds = %land.rhs, %do.cond
  %7 = phi i1 [ false, %do.cond ], [ %cmp, %land.rhs ]
  br i1 %7, label %do.body, label %do.end, !llvm.loop !22

do.end:                                           ; preds = %land.end
  %8 = load i8, ptr %c1, align 1
  %conv8 = sext i8 %8 to i32
  %9 = load i8, ptr %c2, align 1
  %conv9 = sext i8 %9 to i32
  %sub = sub nsw i32 %conv8, %conv9
  ret i32 %sub
}

; Function Attrs: mustprogress nounwind uwtable
define linkonce_odr hidden noundef ptr @_ZNK4pugi13xml_attribute4nameEv(ptr noundef nonnull align 8 dereferenceable(8) %this) #0 comdat align 2 {
entry:
  %retval = alloca ptr, align 8
  %this.addr = alloca ptr, align 8
  %name = alloca ptr, align 8
  store ptr %this, ptr %this.addr, align 8
  %this1 = load ptr, ptr %this.addr, align 8
  %_attr = getelementptr inbounds %"class.pugi::xml_attribute", ptr %this1, i32 0, i32 0
  %0 = load ptr, ptr %_attr, align 8
  %tobool = icmp ne ptr %0, null
  br i1 %tobool, label %if.end, label %if.then

if.then:                                          ; preds = %entry
  store ptr @.str.86, ptr %retval, align 8
  br label %return

if.end:                                           ; preds = %entry
  %_attr2 = getelementptr inbounds %"class.pugi::xml_attribute", ptr %this1, i32 0, i32 0
  %1 = load ptr, ptr %_attr2, align 8
  %name3 = getelementptr inbounds %"struct.pugi::xml_attribute_struct", ptr %1, i32 0, i32 1
  %2 = load ptr, ptr %name3, align 8
  store ptr %2, ptr %name, align 8
  %3 = load ptr, ptr %name, align 8
  %tobool4 = icmp ne ptr %3, null
  br i1 %tobool4, label %cond.true, label %cond.false

cond.true:                                        ; preds = %if.end
  %4 = load ptr, ptr %name, align 8
  br label %cond.end

cond.false:                                       ; preds = %if.end
  br label %cond.end

cond.end:                                         ; preds = %cond.false, %cond.true
  %cond = phi ptr [ %4, %cond.true ], [ @.str.86, %cond.false ]
  store ptr %cond, ptr %retval, align 8
  br label %return

return:                                           ; preds = %cond.end, %if.then
  %5 = load ptr, ptr %retval, align 8
  ret ptr %5
}

; Function Attrs: mustprogress nounwind uwtable
define linkonce_odr hidden noundef nonnull align 8 dereferenceable(8) ptr @_ZNK4pugi22xml_attribute_iteratordeEv(ptr noundef nonnull align 8 dereferenceable(16) %this) #0 comdat align 2 {
entry:
  %this.addr = alloca ptr, align 8
  store ptr %this, ptr %this.addr, align 8
  %this1 = load ptr, ptr %this.addr, align 8
  %_wrap = getelementptr inbounds %"class.pugi::xml_attribute_iterator", ptr %this1, i32 0, i32 0
  ret ptr %_wrap
}

; Function Attrs: mustprogress nounwind uwtable
define linkonce_odr hidden noundef zeroext i1 @_ZNK4pugi22xml_attribute_iteratorneERKS0_(ptr noundef nonnull align 8 dereferenceable(16) %this, ptr noundef nonnull align 8 dereferenceable(16) %rhs) #0 comdat align 2 {
entry:
  %this.addr = alloca ptr, align 8
  %rhs.addr = alloca ptr, align 8
  store ptr %this, ptr %this.addr, align 8
  store ptr %rhs, ptr %rhs.addr, align 8
  %this1 = load ptr, ptr %this.addr, align 8
  %_wrap = getelementptr inbounds %"class.pugi::xml_attribute_iterator", ptr %this1, i32 0, i32 0
  %_attr = getelementptr inbounds %"class.pugi::xml_attribute", ptr %_wrap, i32 0, i32 0
  %0 = load ptr, ptr %_attr, align 8
  %1 = load ptr, ptr %rhs.addr, align 8
  %_wrap2 = getelementptr inbounds %"class.pugi::xml_attribute_iterator", ptr %1, i32 0, i32 0
  %_attr3 = getelementptr inbounds %"class.pugi::xml_attribute", ptr %_wrap2, i32 0, i32 0
  %2 = load ptr, ptr %_attr3, align 8
  %cmp = icmp ne ptr %0, %2
  br i1 %cmp, label %lor.end, label %lor.rhs

lor.rhs:                                          ; preds = %entry
  %_parent = getelementptr inbounds %"class.pugi::xml_attribute_iterator", ptr %this1, i32 0, i32 1
  %_root = getelementptr inbounds %"class.pugi::xml_node", ptr %_parent, i32 0, i32 0
  %3 = load ptr, ptr %_root, align 8
  %4 = load ptr, ptr %rhs.addr, align 8
  %_parent4 = getelementptr inbounds %"class.pugi::xml_attribute_iterator", ptr %4, i32 0, i32 1
  %_root5 = getelementptr inbounds %"class.pugi::xml_node", ptr %_parent4, i32 0, i32 0
  %5 = load ptr, ptr %_root5, align 8
  %cmp6 = icmp ne ptr %3, %5
  br label %lor.end

lor.end:                                          ; preds = %lor.rhs, %entry
  %6 = phi i1 [ true, %entry ], [ %cmp6, %lor.rhs ]
  ret i1 %6
}

; Function Attrs: mustprogress nounwind uwtable
define linkonce_odr hidden { ptr, ptr } @_ZNK4pugi16xml_object_rangeINS_22xml_attribute_iteratorEE3endEv(ptr noundef nonnull align 8 dereferenceable(32) %this) #0 comdat align 2 {
entry:
  %retval = alloca %"class.pugi::xml_attribute_iterator", align 8
  %this.addr = alloca ptr, align 8
  store ptr %this, ptr %this.addr, align 8
  %this1 = load ptr, ptr %this.addr, align 8
  %_end = getelementptr inbounds %"class.pugi::xml_object_range.99", ptr %this1, i32 0, i32 1
  call void @llvm.memcpy.p0.p0.i64(ptr align 8 %retval, ptr align 8 %_end, i64 16, i1 false)
  %0 = load { ptr, ptr }, ptr %retval, align 8
  ret { ptr, ptr } %0
}

; Function Attrs: mustprogress nounwind uwtable
define linkonce_odr hidden { ptr, ptr } @_ZNK4pugi16xml_object_rangeINS_22xml_attribute_iteratorEE5beginEv(ptr noundef nonnull align 8 dereferenceable(32) %this) #0 comdat align 2 {
entry:
  %retval = alloca %"class.pugi::xml_attribute_iterator", align 8
  %this.addr = alloca ptr, align 8
  store ptr %this, ptr %this.addr, align 8
  %this1 = load ptr, ptr %this.addr, align 8
  %_begin = getelementptr inbounds %"class.pugi::xml_object_range.99", ptr %this1, i32 0, i32 0
  call void @llvm.memcpy.p0.p0.i64(ptr align 8 %retval, ptr align 8 %_begin, i64 16, i1 false)
  %0 = load { ptr, ptr }, ptr %retval, align 8
  ret { ptr, ptr } %0
}

; Function Attrs: mustprogress uwtable
define linkonce_odr hidden void @_ZNK4pugi8xml_node10attributesEv(ptr noalias sret(%"class.pugi::xml_object_range.99") align 8 %agg.result, ptr noundef nonnull align 8 dereferenceable(8) %this) #2 comdat align 2 {
entry:
  %this.addr = alloca ptr, align 8
  %agg.tmp = alloca %"class.pugi::xml_attribute_iterator", align 8
  %agg.tmp2 = alloca %"class.pugi::xml_attribute_iterator", align 8
  store ptr %this, ptr %this.addr, align 8
  %this1 = load ptr, ptr %this.addr, align 8
  %call = call { ptr, ptr } @_ZNK4pugi8xml_node16attributes_beginEv(ptr noundef nonnull align 8 dereferenceable(8) %this1)
  %0 = getelementptr inbounds { ptr, ptr }, ptr %agg.tmp, i32 0, i32 0
  %1 = extractvalue { ptr, ptr } %call, 0
  store ptr %1, ptr %0, align 8
  %2 = getelementptr inbounds { ptr, ptr }, ptr %agg.tmp, i32 0, i32 1
  %3 = extractvalue { ptr, ptr } %call, 1
  store ptr %3, ptr %2, align 8
  %call3 = call { ptr, ptr } @_ZNK4pugi8xml_node14attributes_endEv(ptr noundef nonnull align 8 dereferenceable(8) %this1)
  %4 = getelementptr inbounds { ptr, ptr }, ptr %agg.tmp2, i32 0, i32 0
  %5 = extractvalue { ptr, ptr } %call3, 0
  store ptr %5, ptr %4, align 8
  %6 = getelementptr inbounds { ptr, ptr }, ptr %agg.tmp2, i32 0, i32 1
  %7 = extractvalue { ptr, ptr } %call3, 1
  store ptr %7, ptr %6, align 8
  %8 = getelementptr inbounds { ptr, ptr }, ptr %agg.tmp, i32 0, i32 0
  %9 = load ptr, ptr %8, align 8
  %10 = getelementptr inbounds { ptr, ptr }, ptr %agg.tmp, i32 0, i32 1
  %11 = load ptr, ptr %10, align 8
  %12 = getelementptr inbounds { ptr, ptr }, ptr %agg.tmp2, i32 0, i32 0
  %13 = load ptr, ptr %12, align 8
  %14 = getelementptr inbounds { ptr, ptr }, ptr %agg.tmp2, i32 0, i32 1
  %15 = load ptr, ptr %14, align 8
  call void @_ZN4pugi16xml_object_rangeINS_22xml_attribute_iteratorEEC2ES1_S1_(ptr noundef nonnull align 8 dereferenceable(32) %agg.result, ptr %9, ptr %11, ptr %13, ptr %15)
  ret void
}

; Function Attrs: mustprogress uwtable
define hidden noundef i32 @_ZN6Assimp11XGLImporter10ReadIDAttrERN4pugi8xml_nodeE(ptr noundef nonnull align 8 dereferenceable(88) %this, ptr noundef nonnull align 8 dereferenceable(8) %node) #2 align 2 {
entry:
  %retval = alloca i32, align 4
  %this.addr = alloca ptr, align 8
  %node.addr = alloca ptr, align 8
  %__range1 = alloca ptr, align 8
  %ref.tmp = alloca %"class.pugi::xml_object_range.99", align 8
  %__begin1 = alloca %"class.pugi::xml_attribute_iterator", align 8
  %__end1 = alloca %"class.pugi::xml_attribute_iterator", align 8
  %attr = alloca %"class.pugi::xml_attribute", align 8
  store ptr %this, ptr %this.addr, align 8
  store ptr %node, ptr %node.addr, align 8
  %0 = load ptr, ptr %node.addr, align 8
  call void @_ZNK4pugi8xml_node10attributesEv(ptr sret(%"class.pugi::xml_object_range.99") align 8 %ref.tmp, ptr noundef nonnull align 8 dereferenceable(8) %0)
  store ptr %ref.tmp, ptr %__range1, align 8
  %1 = load ptr, ptr %__range1, align 8
  %call = call { ptr, ptr } @_ZNK4pugi16xml_object_rangeINS_22xml_attribute_iteratorEE5beginEv(ptr noundef nonnull align 8 dereferenceable(32) %1)
  %2 = getelementptr inbounds { ptr, ptr }, ptr %__begin1, i32 0, i32 0
  %3 = extractvalue { ptr, ptr } %call, 0
  store ptr %3, ptr %2, align 8
  %4 = getelementptr inbounds { ptr, ptr }, ptr %__begin1, i32 0, i32 1
  %5 = extractvalue { ptr, ptr } %call, 1
  store ptr %5, ptr %4, align 8
  %6 = load ptr, ptr %__range1, align 8
  %call2 = call { ptr, ptr } @_ZNK4pugi16xml_object_rangeINS_22xml_attribute_iteratorEE3endEv(ptr noundef nonnull align 8 dereferenceable(32) %6)
  %7 = getelementptr inbounds { ptr, ptr }, ptr %__end1, i32 0, i32 0
  %8 = extractvalue { ptr, ptr } %call2, 0
  store ptr %8, ptr %7, align 8
  %9 = getelementptr inbounds { ptr, ptr }, ptr %__end1, i32 0, i32 1
  %10 = extractvalue { ptr, ptr } %call2, 1
  store ptr %10, ptr %9, align 8
  br label %for.cond

for.cond:                                         ; preds = %for.inc, %entry
  %call3 = call noundef zeroext i1 @_ZNK4pugi22xml_attribute_iteratorneERKS0_(ptr noundef nonnull align 8 dereferenceable(16) %__begin1, ptr noundef nonnull align 8 dereferenceable(16) %__end1)
  br i1 %call3, label %for.body, label %for.end

for.body:                                         ; preds = %for.cond
  %call4 = call noundef nonnull align 8 dereferenceable(8) ptr @_ZNK4pugi22xml_attribute_iteratordeEv(ptr noundef nonnull align 8 dereferenceable(16) %__begin1)
  call void @llvm.memcpy.p0.p0.i64(ptr align 8 %attr, ptr align 8 %call4, i64 8, i1 false)
  %call5 = call noundef ptr @_ZNK4pugi13xml_attribute4nameEv(ptr noundef nonnull align 8 dereferenceable(8) %attr)
  %call6 = call noundef i32 @_ZN6Assimp14ASSIMP_stricmpEPKcS1_(ptr noundef %call5, ptr noundef @.str.76)
  %tobool = icmp ne i32 %call6, 0
  br i1 %tobool, label %if.end, label %if.then

if.then:                                          ; preds = %for.body
  %call7 = call noundef i32 @_ZNK4pugi13xml_attribute6as_intEi(ptr noundef nonnull align 8 dereferenceable(8) %attr, i32 noundef 0)
  store i32 %call7, ptr %retval, align 4
  br label %return

if.end:                                           ; preds = %for.body
  br label %for.inc

for.inc:                                          ; preds = %if.end
  %call8 = call noundef nonnull align 8 dereferenceable(16) ptr @_ZN4pugi22xml_attribute_iteratorppEv(ptr noundef nonnull align 8 dereferenceable(16) %__begin1)
  br label %for.cond

for.end:                                          ; preds = %for.cond
  store i32 -1, ptr %retval, align 4
  br label %return

return:                                           ; preds = %for.end, %if.then
  %11 = load i32, ptr %retval, align 4
  ret i32 %11
}