; Function Attrs: mustprogress nounwind uwtable
define hidden noundef i32 @_ZN6Assimp11XGLImporter10ReadIDAttrERN4pugi8xml_nodeE(ptr nocapture noundef nonnull readnone align 8 dereferenceable(88) %this, ptr nocapture noundef nonnull readonly align 8 dereferenceable(8) %node) local_unnamed_addr #0 align 2 {
entry:
  %0 = load ptr, ptr %node, align 8, !noalias !107
  %tobool.not.i.i = icmp eq ptr %0, null
  br i1 %tobool.not.i.i, label %return, label %_ZNK4pugi8xml_node10attributesEv.exit

_ZNK4pugi8xml_node10attributesEv.exit:            ; preds = %entry
  %first_attribute.i.i = getelementptr inbounds i8, ptr %0, i64 56
  %1 = load ptr, ptr %first_attribute.i.i, align 8, !noalias !107
  %cmp.not.i.not13 = icmp eq ptr %1, null
  br i1 %cmp.not.i.not13, label %return, label %if.end.i

if.end.i:                                         ; preds = %_ZNK4pugi8xml_node10attributesEv.exit, %for.inc
  %__begin1.sroa.0.014 = phi ptr [ %8, %for.inc ], [ %1, %_ZNK4pugi8xml_node10attributesEv.exit ]
  %name3.i = getelementptr inbounds i8, ptr %__begin1.sroa.0.014, i64 8
  %2 = load ptr, ptr %name3.i, align 8
  %tobool4.not.i = icmp eq ptr %2, null
  %cond.i = select i1 %tobool4.not.i, ptr @.str.86, ptr %2
  br label %do.body.i

do.body.i:                                        ; preds = %do.body.i, %if.end.i
  %s2.addr.0.i = phi ptr [ @.str.76, %if.end.i ], [ %incdec.ptr2.i, %do.body.i ]
  %s1.addr.0.i = phi ptr [ %cond.i, %if.end.i ], [ %incdec.ptr.i, %do.body.i ]
  %incdec.ptr.i = getelementptr inbounds i8, ptr %s1.addr.0.i, i64 1
  %3 = load i8, ptr %s1.addr.0.i, align 1
  %conv.i = zext i8 %3 to i32
  %call.i = tail call i32 @tolower(i32 noundef %conv.i) #28
  %incdec.ptr2.i = getelementptr inbounds i8, ptr %s2.addr.0.i, i64 1
  %4 = load i8, ptr %s2.addr.0.i, align 1
  %conv3.i = zext i8 %4 to i32
  %call4.i = tail call i32 @tolower(i32 noundef %conv3.i) #28
  %5 = and i32 %call.i, 255
  %tobool.i = icmp ne i32 %5, 0
  %cmp.i.unshifted = xor i32 %call.i, %call4.i
  %cmp.i.mask = and i32 %cmp.i.unshifted, 255
  %cmp.i = icmp eq i32 %cmp.i.mask, 0
  %6 = select i1 %tobool.i, i1 %cmp.i, i1 false
  br i1 %6, label %do.body.i, label %_ZN6Assimp14ASSIMP_stricmpEPKcS1_.exit, !llvm.loop !56

_ZN6Assimp14ASSIMP_stricmpEPKcS1_.exit:           ; preds = %do.body.i
  br i1 %cmp.i, label %if.end.i7, label %for.inc

if.end.i7:                                        ; preds = %_ZN6Assimp14ASSIMP_stricmpEPKcS1_.exit
  %value3.i = getelementptr inbounds i8, ptr %__begin1.sroa.0.014, i64 16
  %7 = load ptr, ptr %value3.i, align 8
  %tobool4.not.i8 = icmp eq ptr %7, null
  br i1 %tobool4.not.i8, label %return, label %cond.true.i

cond.true.i:                                      ; preds = %if.end.i7
  %call.i.i = tail call noundef i32 @_ZN4pugi4impl17string_to_integerIjEET_PKcS2_S2_(ptr noundef nonnull %7, i32 noundef -2147483648, i32 noundef 2147483647)
  br label %return

for.inc:                                          ; preds = %_ZN6Assimp14ASSIMP_stricmpEPKcS1_.exit
  %next_attribute.i = getelementptr inbounds i8, ptr %__begin1.sroa.0.014, i64 32
  %8 = load ptr, ptr %next_attribute.i, align 8
  %cmp.not.i.not = icmp eq ptr %8, null
  br i1 %cmp.not.i.not, label %return, label %if.end.i

return:                                           ; preds = %for.inc, %entry, %_ZNK4pugi8xml_node10attributesEv.exit, %cond.true.i, %if.end.i7
  %retval.0 = phi i32 [ %call.i.i, %cond.true.i ], [ 0, %if.end.i7 ], [ -1, %_ZNK4pugi8xml_node10attributesEv.exit ], [ -1, %entry ], [ -1, %for.inc ]
  ret i32 %retval.0
}